target datalayout = "e-m:e-p270:32:32-p271:32:32-p272:64:64-i64:64-i128:128-f80:128-n8:16:32:64-S128"
target triple = "x86_64-pc-linux-gnu"

%struct.lzma_stream = type { ptr, i64, i64, ptr, i64, i64, ptr, ptr, ptr, ptr, ptr, ptr, i64, i64, i64, i64, i32, i32 }
%struct.la_zstream = type { ptr, i64, i64, ptr, i64, i64, i32, ptr, i32, ptr, ptr, ptr }

@.str.41 = private unnamed_addr constant [55 x i8] c"lzma compression error: %ju MiB would have been needed\00", align 1
@.str.42 = private unnamed_addr constant [61 x i8] c"lzma compression failed: lzma_code() call returned status %d\00", align 1

; Function Attrs: nounwind uwtable
define internal i32 @compression_code_lzma(ptr noundef %0, ptr noundef %1, i32 noundef %2) #0 {
  %4 = alloca i32, align 4
  %5 = alloca ptr, align 8
  %6 = alloca ptr, align 8
  %7 = alloca i32, align 4
  %8 = alloca ptr, align 8
  %9 = alloca i32, align 4
  store ptr %0, ptr %5, align 8
  store ptr %1, ptr %6, align 8
  store i32 %2, ptr %7, align 4
  %10 = load ptr, ptr %6, align 8
  %11 = getelementptr inbounds %struct.la_zstream, ptr %10, i32 0, i32 9
  %12 = load ptr, ptr %11, align 8
  store ptr %12, ptr %8, align 8
  %13 = load ptr, ptr %6, align 8
  %14 = getelementptr inbounds %struct.la_zstream, ptr %13, i32 0, i32 0
  %15 = load ptr, ptr %14, align 8
  %16 = load ptr, ptr %8, align 8
  %17 = getelementptr inbounds %struct.lzma_stream, ptr %16, i32 0, i32 0
  store ptr %15, ptr %17, align 8
  %18 = load ptr, ptr %6, align 8
  %19 = getelementptr inbounds %struct.la_zstream, ptr %18, i32 0, i32 1
  %20 = load i64, ptr %19, align 8
  %21 = load ptr, ptr %8, align 8
  %22 = getelementptr inbounds %struct.lzma_stream, ptr %21, i32 0, i32 1
  store i64 %20, ptr %22, align 8
  %23 = load ptr, ptr %6, align 8
  %24 = getelementptr inbounds %struct.la_zstream, ptr %23, i32 0, i32 2
  %25 = load i64, ptr %24, align 8
  %26 = load ptr, ptr %8, align 8
  %27 = getelementptr inbounds %struct.lzma_stream, ptr %26, i32 0, i32 2
  store i64 %25, ptr %27, align 8
  %28 = load ptr, ptr %6, align 8
  %29 = getelementptr inbounds %struct.la_zstream, ptr %28, i32 0, i32 3
  %30 = load ptr, ptr %29, align 8
  %31 = load ptr, ptr %8, align 8
  %32 = getelementptr inbounds %struct.lzma_stream, ptr %31, i32 0, i32 3
  store ptr %30, ptr %32, align 8
  %33 = load ptr, ptr %6, align 8
  %34 = getelementptr inbounds %struct.la_zstream, ptr %33, i32 0, i32 4
  %35 = load i64, ptr %34, align 8
  %36 = load ptr, ptr %8, align 8
  %37 = getelementptr inbounds %struct.lzma_stream, ptr %36, i32 0, i32 4
  store i64 %35, ptr %37, align 8
  %38 = load ptr, ptr %6, align 8
  %39 = getelementptr inbounds %struct.la_zstream, ptr %38, i32 0, i32 5
  %40 = load i64, ptr %39, align 8
  %41 = load ptr, ptr %8, align 8
  %42 = getelementptr inbounds %struct.lzma_stream, ptr %41, i32 0, i32 5
  store i64 %40, ptr %42, align 8
  %43 = load ptr, ptr %8, align 8
  %44 = load i32, ptr %7, align 4
  %45 = icmp eq i32 %44, 0
  %46 = select i1 %45, i32 3, i32 0
  %47 = call i32 @lzma_code(ptr noundef %43, i32 noundef %46) #10
  store i32 %47, ptr %9, align 4
  %48 = load ptr, ptr %8, align 8
  %49 = getelementptr inbounds %struct.lzma_stream, ptr %48, i32 0, i32 0
  %50 = load ptr, ptr %49, align 8
  %51 = load ptr, ptr %6, align 8
  %52 = getelementptr inbounds %struct.la_zstream, ptr %51, i32 0, i32 0
  store ptr %50, ptr %52, align 8
  %53 = load ptr, ptr %8, align 8
  %54 = getelementptr inbounds %struct.lzma_stream, ptr %53, i32 0, i32 1
  %55 = load i64, ptr %54, align 8
  %56 = load ptr, ptr %6, align 8
  %57 = getelementptr inbounds %struct.la_zstream, ptr %56, i32 0, i32 1
  store i64 %55, ptr %57, align 8
  %58 = load ptr, ptr %8, align 8
  %59 = getelementptr inbounds %struct.lzma_stream, ptr %58, i32 0, i32 2
  %60 = load i64, ptr %59, align 8
  %61 = load ptr, ptr %6, align 8
  %62 = getelementptr inbounds %struct.la_zstream, ptr %61, i32 0, i32 2
  store i64 %60, ptr %62, align 8
  %63 = load ptr, ptr %8, align 8
  %64 = getelementptr inbounds %struct.lzma_stream, ptr %63, i32 0, i32 3
  %65 = load ptr, ptr %64, align 8
  %66 = load ptr, ptr %6, align 8
  %67 = getelementptr inbounds %struct.la_zstream, ptr %66, i32 0, i32 3
  store ptr %65, ptr %67, align 8
  %68 = load ptr, ptr %8, align 8
  %69 = getelementptr inbounds %struct.lzma_stream, ptr %68, i32 0, i32 4
  %70 = load i64, ptr %69, align 8
  %71 = load ptr, ptr %6, align 8
  %72 = getelementptr inbounds %struct.la_zstream, ptr %71, i32 0, i32 4
  store i64 %70, ptr %72, align 8
  %73 = load ptr, ptr %8, align 8
  %74 = getelementptr inbounds %struct.lzma_stream, ptr %73, i32 0, i32 5
  %75 = load i64, ptr %74, align 8
  %76 = load ptr, ptr %6, align 8
  %77 = getelementptr inbounds %struct.la_zstream, ptr %76, i32 0, i32 5
  store i64 %75, ptr %77, align 8
  %78 = load i32, ptr %9, align 4
  switch i32 %78, label %88 [
    i32 0, label %79
    i32 1, label %80
    i32 6, label %81
  ]

79:                                               ; preds = %3
  store i32 0, ptr %4, align 4
  br label %91

80:                                               ; preds = %3
  store i32 1, ptr %4, align 4
  br label %91

81:                                               ; preds = %3
  %82 = load ptr, ptr %5, align 8
  %83 = load ptr, ptr %8, align 8
  %84 = call i64 @lzma_memusage(ptr noundef %83) #9
  %85 = add i64 %84, 1048576
  %86 = sub i64 %85, 1
  %87 = udiv i64 %86, 1048576
  call void (ptr, i32, ptr, ...) @archive_set_error(ptr noundef %82, i32 noundef 12, ptr noundef @.str.41, i64 noundef %87)
  store i32 -30, ptr %4, align 4
  br label %91

88:                                               ; preds = %3
  %89 = load ptr, ptr %5, align 8
  %90 = load i32, ptr %9, align 4
  call void (ptr, i32, ptr, ...) @archive_set_error(ptr noundef %89, i32 noundef -1, ptr noundef @.str.42, i32 noundef %90)
  store i32 -30, ptr %4, align 4
  br label %91

91:                                               ; preds = %88, %81, %80, %79
  %92 = load i32, ptr %4, align 4
  ret i32 %92
}