; Function Attrs: nounwind uwtable
define internal range(i32 -30, 2) i32 @compression_code_lzma(ptr noundef %0, ptr noundef captures(none) %1, i32 noundef %2) #0 {
  %4 = getelementptr inbounds nuw i8, ptr %1, i64 72
  %5 = load ptr, ptr %4, align 8
  %6 = load ptr, ptr %1, align 8
  store ptr %6, ptr %5, align 8
  %7 = getelementptr inbounds nuw i8, ptr %1, i64 8
  %8 = load i64, ptr %7, align 8
  %9 = getelementptr inbounds nuw i8, ptr %5, i64 8
  store i64 %8, ptr %9, align 8
  %10 = getelementptr inbounds nuw i8, ptr %1, i64 16
  %11 = load i64, ptr %10, align 8
  %12 = getelementptr inbounds nuw i8, ptr %5, i64 16
  store i64 %11, ptr %12, align 8
  %13 = getelementptr inbounds nuw i8, ptr %1, i64 24
  %14 = load ptr, ptr %13, align 8
  %15 = getelementptr inbounds nuw i8, ptr %5, i64 24
  store ptr %14, ptr %15, align 8
  %16 = getelementptr inbounds nuw i8, ptr %1, i64 32
  %17 = load i64, ptr %16, align 8
  %18 = getelementptr inbounds nuw i8, ptr %5, i64 32
  store i64 %17, ptr %18, align 8
  %19 = getelementptr inbounds nuw i8, ptr %1, i64 40
  %20 = load i64, ptr %19, align 8
  %21 = getelementptr inbounds nuw i8, ptr %5, i64 40
  store i64 %20, ptr %21, align 8
  %22 = icmp eq i32 %2, 0
  %23 = select i1 %22, i32 3, i32 0
  %24 = tail call i32 @lzma_code(ptr noundef nonnull %5, i32 noundef %23) #18
  %25 = load ptr, ptr %5, align 8
  store ptr %25, ptr %1, align 8
  %26 = load i64, ptr %9, align 8
  store i64 %26, ptr %7, align 8
  %27 = load i64, ptr %12, align 8
  store i64 %27, ptr %10, align 8
  %28 = load ptr, ptr %15, align 8
  store ptr %28, ptr %13, align 8
  %29 = load i64, ptr %18, align 8
  store i64 %29, ptr %16, align 8
  %30 = load i64, ptr %21, align 8
  store i64 %30, ptr %19, align 8
  switch i32 %24, label %35 [
    i32 0, label %36
    i32 1, label %36
    i32 6, label %31
  ]

31:                                               ; preds = %3
  %32 = tail call i64 @lzma_memusage(ptr noundef nonnull %5) #20
  %33 = add i64 %32, 1048575
  %34 = lshr i64 %33, 20
  tail call void (ptr, i32, ptr, ...) @archive_set_error(ptr noundef %0, i32 noundef 12, ptr noundef nonnull @.str.41, i64 noundef %34) #18
  br label %36

35:                                               ; preds = %3
  tail call void (ptr, i32, ptr, ...) @archive_set_error(ptr noundef %0, i32 noundef -1, ptr noundef nonnull @.str.42, i32 noundef %24) #18
  br label %36

36:                                               ; preds = %3, %3, %35, %31
  %.0 = phi i32 [ -30, %35 ], [ -30, %31 ], [ %24, %3 ], [ %24, %3 ]
  ret i32 %.0
}